target datalayout = "e-m:e-p270:32:32-p271:32:32-p272:64:64-i64:64-i128:128-f80:128-n8:16:32:64-S128"
target triple = "x86_64-pc-linux-gnu"

; Function Attrs: mustprogress nounwind uwtable
define hidden noundef i32 @_ZN14JfrOSInterface18JfrOSInterfaceImpl8cpu_loadEiPd(ptr noundef nonnull align 8 dereferenceable(32) %0, i32 noundef %1, ptr noundef %2) #1 align 2 {
  %4 = alloca ptr, align 8
  %5 = alloca i32, align 4
  %6 = alloca ptr, align 8
  %7 = alloca ptr, align 8
  store ptr %0, ptr %4, align 8
  store i32 %1, ptr %5, align 4
  store ptr %2, ptr %6, align 8
  %8 = load ptr, ptr %4, align 8
  %9 = call noundef ptr @_ZN14JfrOSInterface18JfrOSInterfaceImpl18cpu_perf_interfaceEv(ptr noundef nonnull align 8 dereferenceable(32) %8)
  store ptr %9, ptr %7, align 8
  %10 = load ptr, ptr %7, align 8
  %11 = icmp eq ptr %10, null
  br i1 %11, label %12, label %13

12:                                               ; preds = %3
  br label %18

13:                                               ; preds = %3
  %14 = load ptr, ptr %7, align 8
  %15 = load i32, ptr %5, align 4
  %16 = load ptr, ptr %6, align 8
  %17 = call noundef i32 @_ZNK23CPUPerformanceInterface8cpu_loadEiPd(ptr noundef nonnull align 8 dereferenceable(8) %14, i32 noundef %15, ptr noundef %16)
  br label %18

18:                                               ; preds = %13, %12
  %19 = phi i32 [ -1, %12 ], [ %17, %13 ]
  ret i32 %19
}