; Function Attrs: mustprogress nounwind uwtable
define hidden noundef i32 @_ZN14JfrOSInterface18JfrOSInterfaceImpl8cpu_loadEiPd(ptr nocapture noundef nonnull align 8 dereferenceable(32) %0, i32 noundef %1, ptr noundef %2) local_unnamed_addr #1 align 2 {
  %4 = tail call noundef ptr @_ZN14JfrOSInterface18JfrOSInterfaceImpl18cpu_perf_interfaceEv(ptr noundef nonnull align 8 dereferenceable(32) %0)
  %5 = icmp eq ptr %4, null
  br i1 %5, label %8, label %6

6:                                                ; preds = %3
  %7 = tail call noundef i32 @_ZNK23CPUPerformanceInterface8cpu_loadEiPd(ptr noundef nonnull align 8 dereferenceable(8) %4, i32 noundef %1, ptr noundef %2) #14
  br label %8

8:                                                ; preds = %3, %6
  %9 = phi i32 [ %7, %6 ], [ -1, %3 ]
  ret i32 %9
}